target datalayout = "e-m:e-p270:32:32-p271:32:32-p272:64:64-i64:64-i128:128-f80:128-n8:16:32:64-S128"
target triple = "x86_64-unknown-linux-gnu"

%"class.icu_75::UObject" = type { ptr }
%"class.icu_75::UnicodeString" = type { %"class.icu_75::Replaceable", %"union.icu_75::UnicodeString::StackBufferOrFields" }
%"class.icu_75::Replaceable" = type { %"class.icu_75::UObject" }
%"union.icu_75::UnicodeString::StackBufferOrFields" = type { %struct.anon.0, [32 x i8] }
%struct.anon.0 = type { i16, i32, i32, ptr }
%"class.icu_75::ConstChar16Ptr" = type { ptr }
%"class.icu_75::ParsePosition" = type { %"class.icu_75::UObject", i32, i32 }

@_ZTVN6icu_757UObjectE = external unnamed_addr constant { [5 x ptr] }, align 8
@_ZTVN6icu_7513ParsePositionE = external unnamed_addr constant { [5 x ptr] }, align 8

; Function Attrs: mustprogress nounwind uwtable
define linkonce_odr void @_ZN6icu_757UObjectC2Ev(ptr noundef nonnull align 8 dereferenceable(8) %this) unnamed_addr #0 comdat align 2 {
entry:
  %this.addr = alloca ptr, align 8
  store ptr %this, ptr %this.addr, align 8
  %this1 = load ptr, ptr %this.addr, align 8
  store ptr getelementptr inbounds ({ [5 x ptr] }, ptr @_ZTVN6icu_757UObjectE, i32 0, i32 0, i32 2), ptr %this1, align 8
  ret void
}

; Function Attrs: mustprogress nounwind uwtable
define linkonce_odr noundef i32 @_ZNK6icu_7513ParsePosition8getIndexEv(ptr noundef nonnull align 8 dereferenceable(16) %this) #0 comdat align 2 {
entry:
  %this.addr = alloca ptr, align 8
  store ptr %this, ptr %this.addr, align 8
  %this1 = load ptr, ptr %this.addr, align 8
  %index = getelementptr inbounds %"class.icu_75::ParsePosition", ptr %this1, i32 0, i32 1
  %0 = load i32, ptr %index, align 8
  ret i32 %0
}

; Function Attrs: mustprogress nounwind uwtable
define linkonce_odr noundef i32 @_ZNK6icu_7513ParsePosition13getErrorIndexEv(ptr noundef nonnull align 8 dereferenceable(16) %this) #0 comdat align 2 {
entry:
  %this.addr = alloca ptr, align 8
  store ptr %this, ptr %this.addr, align 8
  %this1 = load ptr, ptr %this.addr, align 8
  %errorIndex = getelementptr inbounds %"class.icu_75::ParsePosition", ptr %this1, i32 0, i32 2
  %0 = load i32, ptr %errorIndex, align 4
  ret i32 %0
}

; Function Attrs: mustprogress nounwind uwtable
define linkonce_odr void @_ZN6icu_7513ParsePosition8setIndexEi(ptr noundef nonnull align 8 dereferenceable(16) %this, i32 noundef %offset) #0 comdat align 2 {
entry:
  %this.addr = alloca ptr, align 8
  %offset.addr = alloca i32, align 4
  store ptr %this, ptr %this.addr, align 8
  store i32 %offset, ptr %offset.addr, align 4
  %this1 = load ptr, ptr %this.addr, align 8
  %0 = load i32, ptr %offset.addr, align 4
  %index = getelementptr inbounds %"class.icu_75::ParsePosition", ptr %this1, i32 0, i32 1
  store i32 %0, ptr %index, align 8
  ret void
}

; Function Attrs: mustprogress nounwind uwtable
define linkonce_odr void @_ZN6icu_7513ParsePositionC2Ev(ptr noundef nonnull align 8 dereferenceable(16) %this) unnamed_addr #0 comdat align 2 {
entry:
  %this.addr = alloca ptr, align 8
  store ptr %this, ptr %this.addr, align 8
  %this1 = load ptr, ptr %this.addr, align 8
  %0 = getelementptr inbounds i8, ptr %this1, i64 0
  call void @llvm.memset.p0.i64(ptr align 8 %0, i8 0, i64 8, i1 false)
  call void @_ZN6icu_757UObjectC2Ev(ptr noundef nonnull align 8 dereferenceable(8) %this1) #6
  store ptr getelementptr inbounds ({ [5 x ptr] }, ptr @_ZTVN6icu_7513ParsePositionE, i32 0, i32 0, i32 2), ptr %this1, align 8
  %index = getelementptr inbounds %"class.icu_75::ParsePosition", ptr %this1, i32 0, i32 1
  store i32 0, ptr %index, align 8
  %errorIndex = getelementptr inbounds %"class.icu_75::ParsePosition", ptr %this1, i32 0, i32 2
  store i32 -1, ptr %errorIndex, align 4
  ret void
}

; Function Attrs: mustprogress nounwind uwtable
define linkonce_odr void @_ZN6icu_7514ConstChar16PtrD2Ev(ptr noundef nonnull align 8 dereferenceable(8) %this) unnamed_addr #0 comdat align 2 {
entry:
  %this.addr = alloca ptr, align 8
  store ptr %this, ptr %this.addr, align 8
  %this1 = load ptr, ptr %this.addr, align 8
  %p_ = getelementptr inbounds %"class.icu_75::ConstChar16Ptr", ptr %this1, i32 0, i32 0
  %0 = load ptr, ptr %p_, align 8
  call void asm sideeffect "", "rm,~{memory},~{dirflag},~{fpsr},~{flags}"(ptr %0) #6, !srcloc !4
  ret void
}

; Function Attrs: mustprogress nounwind uwtable
define linkonce_odr void @_ZN6icu_7514ConstChar16PtrC2EPKDs(ptr noundef nonnull align 8 dereferenceable(8) %this, ptr noundef %p) unnamed_addr #0 comdat align 2 {
entry:
  %this.addr = alloca ptr, align 8
  %p.addr = alloca ptr, align 8
  store ptr %this, ptr %this.addr, align 8
  store ptr %p, ptr %p.addr, align 8
  %this1 = load ptr, ptr %this.addr, align 8
  %p_ = getelementptr inbounds %"class.icu_75::ConstChar16Ptr", ptr %this1, i32 0, i32 0
  %0 = load ptr, ptr %p.addr, align 8
  store ptr %0, ptr %p_, align 8
  ret void
}

; Function Attrs: mustprogress nounwind uwtable
define internal noundef signext i8 @_ZL9U_FAILURE10UErrorCode(i32 noundef %code) #0 {
entry:
  %code.addr = alloca i32, align 4
  store i32 %code, ptr %code.addr, align 4
  %0 = load i32, ptr %code.addr, align 4
  %cmp = icmp sgt i32 %0, 0
  %conv = zext i1 %cmp to i8
  ret i8 %conv
}

; Function Attrs: mustprogress uwtable
define double @udat_parse_75(ptr noundef %format, ptr noundef %text, i32 noundef %textLength, ptr noundef %parsePos, ptr noundef %status) #1 personality ptr @__gxx_personality_v0 {
entry:
  %retval = alloca double, align 8
  %format.addr = alloca ptr, align 8
  %text.addr = alloca ptr, align 8
  %textLength.addr = alloca i32, align 4
  %parsePos.addr = alloca ptr, align 8
  %status.addr = alloca ptr, align 8
  %src = alloca %"class.icu_75::UnicodeString", align 8
  %agg.tmp = alloca %"class.icu_75::ConstChar16Ptr", align 8
  %exn.slot = alloca ptr, align 8
  %ehselector.slot = alloca i32, align 4
  %pp = alloca %"class.icu_75::ParsePosition", align 8
  %stackParsePos = alloca i32, align 4
  %res = alloca double, align 8
  store ptr %format, ptr %format.addr, align 8
  store ptr %text, ptr %text.addr, align 8
  store i32 %textLength, ptr %textLength.addr, align 4
  store ptr %parsePos, ptr %parsePos.addr, align 8
  store ptr %status, ptr %status.addr, align 8
  %0 = load ptr, ptr %status.addr, align 8
  %1 = load i32, ptr %0, align 4
  %call = call noundef signext i8 @_ZL9U_FAILURE10UErrorCode(i32 noundef %1)
  %tobool = icmp ne i8 %call, 0
  br i1 %tobool, label %if.then, label %if.end

if.then:                                          ; preds = %entry
  store double 0.000000e+00, ptr %retval, align 8
  br label %return

if.end:                                           ; preds = %entry
  %2 = load i32, ptr %textLength.addr, align 4
  %cmp = icmp eq i32 %2, -1
  %conv = zext i1 %cmp to i8
  %3 = load ptr, ptr %text.addr, align 8
  call void @_ZN6icu_7514ConstChar16PtrC2EPKDs(ptr noundef nonnull align 8 dereferenceable(8) %agg.tmp, ptr noundef %3)
  %4 = load i32, ptr %textLength.addr, align 4
  invoke void @_ZN6icu_7513UnicodeStringC1EaNS_14ConstChar16PtrEi(ptr noundef nonnull align 8 dereferenceable(64) %src, i8 noundef signext %conv, ptr noundef %agg.tmp, i32 noundef %4)
          to label %invoke.cont unwind label %lpad

invoke.cont:                                      ; preds = %if.end
  call void @_ZN6icu_7514ConstChar16PtrD2Ev(ptr noundef nonnull align 8 dereferenceable(8) %agg.tmp) #6
  invoke void @_ZN6icu_7513ParsePositionC2Ev(ptr noundef nonnull align 8 dereferenceable(16) %pp)
          to label %invoke.cont2 unwind label %lpad1

invoke.cont2:                                     ; preds = %invoke.cont
  store i32 0, ptr %stackParsePos, align 4
  %5 = load ptr, ptr %parsePos.addr, align 8
  %cmp3 = icmp eq ptr %5, null
  br i1 %cmp3, label %if.then4, label %if.end5

if.then4:                                         ; preds = %invoke.cont2
  store ptr %stackParsePos, ptr %parsePos.addr, align 8
  br label %if.end5

lpad:                                             ; preds = %if.end
  %6 = landingpad { ptr, i32 }
          cleanup
  %7 = extractvalue { ptr, i32 } %6, 0
  store ptr %7, ptr %exn.slot, align 8
  %8 = extractvalue { ptr, i32 } %6, 1
  store i32 %8, ptr %ehselector.slot, align 4
  call void @_ZN6icu_7514ConstChar16PtrD2Ev(ptr noundef nonnull align 8 dereferenceable(8) %agg.tmp) #6
  br label %eh.resume

lpad1:                                            ; preds = %invoke.cont
  %9 = landingpad { ptr, i32 }
          cleanup
  %10 = extractvalue { ptr, i32 } %9, 0
  store ptr %10, ptr %exn.slot, align 8
  %11 = extractvalue { ptr, i32 } %9, 1
  store i32 %11, ptr %ehselector.slot, align 4
  br label %ehcleanup

if.end5:                                          ; preds = %if.then4, %invoke.cont2
  %12 = load ptr, ptr %parsePos.addr, align 8
  %13 = load i32, ptr %12, align 4
  invoke void @_ZN6icu_7513ParsePosition8setIndexEi(ptr noundef nonnull align 8 dereferenceable(16) %pp, i32 noundef %13)
          to label %invoke.cont7 unwind label %lpad6

invoke.cont7:                                     ; preds = %if.end5
  %14 = load ptr, ptr %format.addr, align 8
  %call9 = invoke noundef double @_ZNK6icu_7510DateFormat5parseERKNS_13UnicodeStringERNS_13ParsePositionE(ptr noundef nonnull align 8 dereferenceable(352) %14, ptr noundef nonnull align 8 dereferenceable(64) %src, ptr noundef nonnull align 8 dereferenceable(16) %pp)
          to label %invoke.cont8 unwind label %lpad6

invoke.cont8:                                     ; preds = %invoke.cont7
  store double %call9, ptr %res, align 8
  %call11 = invoke noundef i32 @_ZNK6icu_7513ParsePosition13getErrorIndexEv(ptr noundef nonnull align 8 dereferenceable(16) %pp)
          to label %invoke.cont10 unwind label %lpad6

invoke.cont10:                                    ; preds = %invoke.cont8
  %cmp12 = icmp eq i32 %call11, -1
  br i1 %cmp12, label %if.then13, label %if.else

if.then13:                                        ; preds = %invoke.cont10
  %call15 = invoke noundef i32 @_ZNK6icu_7513ParsePosition8getIndexEv(ptr noundef nonnull align 8 dereferenceable(16) %pp)
          to label %invoke.cont14 unwind label %lpad6

invoke.cont14:                                    ; preds = %if.then13
  %15 = load ptr, ptr %parsePos.addr, align 8
  store i32 %call15, ptr %15, align 4
  br label %if.end18

lpad6:                                            ; preds = %if.else, %if.then13, %invoke.cont8, %invoke.cont7, %if.end5
  %16 = landingpad { ptr, i32 }
          cleanup
  %17 = extractvalue { ptr, i32 } %16, 0
  store ptr %17, ptr %exn.slot, align 8
  %18 = extractvalue { ptr, i32 } %16, 1
  store i32 %18, ptr %ehselector.slot, align 4
  call void @_ZN6icu_7513ParsePositionD1Ev(ptr noundef nonnull align 8 dereferenceable(16) %pp) #6
  br label %ehcleanup

if.else:                                          ; preds = %invoke.cont10
  %call17 = invoke noundef i32 @_ZNK6icu_7513ParsePosition13getErrorIndexEv(ptr noundef nonnull align 8 dereferenceable(16) %pp)
          to label %invoke.cont16 unwind label %lpad6

invoke.cont16:                                    ; preds = %if.else
  %19 = load ptr, ptr %parsePos.addr, align 8
  store i32 %call17, ptr %19, align 4
  %20 = load ptr, ptr %status.addr, align 8
  store i32 9, ptr %20, align 4
  br label %if.end18

if.end18:                                         ; preds = %invoke.cont16, %invoke.cont14
  %21 = load double, ptr %res, align 8
  store double %21, ptr %retval, align 8
  call void @_ZN6icu_7513ParsePositionD1Ev(ptr noundef nonnull align 8 dereferenceable(16) %pp) #6
  call void @_ZN6icu_7513UnicodeStringD1Ev(ptr noundef nonnull align 8 dereferenceable(64) %src) #6
  br label %return

ehcleanup:                                        ; preds = %lpad6, %lpad1
  call void @_ZN6icu_7513UnicodeStringD1Ev(ptr noundef nonnull align 8 dereferenceable(64) %src) #6
  br label %eh.resume

return:                                           ; preds = %if.end18, %if.then
  %22 = load double, ptr %retval, align 8
  ret double %22

eh.resume:                                        ; preds = %ehcleanup, %lpad
  %exn = load ptr, ptr %exn.slot, align 8
  %sel = load i32, ptr %ehselector.slot, align 4
  %lpad.val = insertvalue { ptr, i32 } poison, ptr %exn, 0
  %lpad.val19 = insertvalue { ptr, i32 } %lpad.val, i32 %sel, 1
  resume { ptr, i32 } %lpad.val19
}